target datalayout = "e-m:e-p270:32:32-p271:32:32-p272:64:64-i64:64-i128:128-f80:128-n8:16:32:64-S128"
target triple = "x86_64-unknown-linux-gnu"

%struct.PropertyInfo = type { ptr, ptr, ptr, i8, ptr, ptr, ptr, ptr, ptr, ptr }
%struct.Property = type { ptr, ptr, i64, i8, i64, i8, %union.anon.2, i32, ptr, i32, ptr }
%union.anon.2 = type { i64 }

@.str.9 = private unnamed_addr constant [41 x i8] c"../qemu/hw/core/qdev-properties-system.c\00", align 1
@.str.51 = private unnamed_addr constant [12 x i8] c"x86-machine\00", align 1
@__func__.qdev_propinfo_set_losttickpolicy = private unnamed_addr constant [33 x i8] c"qdev_propinfo_set_losttickpolicy\00", align 1
@.str.52 = private unnamed_addr constant [53 x i8] c"the 'slew' policy is only available for x86 machines\00", align 1
@.str.53 = private unnamed_addr constant [8 x i8] c"machine\00", align 1
@.str.54 = private unnamed_addr constant [98 x i8] c"/home/dtcxzyw/WorkSpace/Projects/compilers/llvm-opt-benchmark/bench/qemu/qemu/include/hw/boards.h\00", align 1
@__func__.MACHINE = private unnamed_addr constant [8 x i8] c"MACHINE\00", align 1

; Function Attrs: nounwind sspstrong uwtable
define internal ptr @MACHINE(ptr noundef %obj) #0 {
entry:
  %obj.addr = alloca ptr, align 8
  store ptr %obj, ptr %obj.addr, align 8
  %0 = load ptr, ptr %obj.addr, align 8
  %call = call ptr @object_dynamic_cast_assert(ptr noundef %0, ptr noundef @.str.53, ptr noundef @.str.54, i32 noundef 23, ptr noundef @__func__.MACHINE)
  ret ptr %call
}

; Function Attrs: nounwind sspstrong uwtable
define internal void @qdev_propinfo_set_losttickpolicy(ptr noundef %obj, ptr noundef %v, ptr noundef %name, ptr noundef %opaque, ptr noundef %errp) #0 {
entry:
  %obj.addr = alloca ptr, align 8
  %v.addr = alloca ptr, align 8
  %name.addr = alloca ptr, align 8
  %opaque.addr = alloca ptr, align 8
  %errp.addr = alloca ptr, align 8
  %prop = alloca ptr, align 8
  %ptr = alloca ptr, align 8
  %value = alloca i32, align 4
  %ms = alloca ptr, align 8
  store ptr %obj, ptr %obj.addr, align 8
  store ptr %v, ptr %v.addr, align 8
  store ptr %name, ptr %name.addr, align 8
  store ptr %opaque, ptr %opaque.addr, align 8
  store ptr %errp, ptr %errp.addr, align 8
  %0 = load ptr, ptr %opaque.addr, align 8
  store ptr %0, ptr %prop, align 8
  %1 = load ptr, ptr %obj.addr, align 8
  %2 = load ptr, ptr %prop, align 8
  %call = call ptr @object_field_prop_ptr(ptr noundef %1, ptr noundef %2)
  store ptr %call, ptr %ptr, align 8
  %3 = load ptr, ptr %v.addr, align 8
  %4 = load ptr, ptr %name.addr, align 8
  %5 = load ptr, ptr %prop, align 8
  %info = getelementptr inbounds %struct.Property, ptr %5, i32 0, i32 1
  %6 = load ptr, ptr %info, align 8
  %enum_table = getelementptr inbounds %struct.PropertyInfo, ptr %6, i32 0, i32 2
  %7 = load ptr, ptr %enum_table, align 8
  %8 = load ptr, ptr %errp.addr, align 8
  %call1 = call zeroext i1 @visit_type_enum(ptr noundef %3, ptr noundef %4, ptr noundef %value, ptr noundef %7, ptr noundef %8)
  br i1 %call1, label %if.end, label %if.then

if.then:                                          ; preds = %entry
  br label %return

if.end:                                           ; preds = %entry
  %9 = load i32, ptr %value, align 4
  %cmp = icmp eq i32 %9, 2
  br i1 %cmp, label %if.then2, label %if.end8

if.then2:                                         ; preds = %if.end
  %call3 = call ptr @qdev_get_machine()
  %call4 = call ptr @MACHINE(ptr noundef %call3)
  store ptr %call4, ptr %ms, align 8
  %10 = load ptr, ptr %ms, align 8
  %call5 = call ptr @object_dynamic_cast(ptr noundef %10, ptr noundef @.str.51)
  %tobool = icmp ne ptr %call5, null
  br i1 %tobool, label %if.end7, label %if.then6

if.then6:                                         ; preds = %if.then2
  %11 = load ptr, ptr %errp.addr, align 8
  call void (ptr, ptr, i32, ptr, ptr, ...) @error_setg_internal(ptr noundef %11, ptr noundef @.str.9, i32 noundef 575, ptr noundef @__func__.qdev_propinfo_set_losttickpolicy, ptr noundef @.str.52)
  br label %return

if.end7:                                          ; preds = %if.then2
  br label %if.end8

if.end8:                                          ; preds = %if.end7, %if.end
  %12 = load i32, ptr %value, align 4
  %13 = load ptr, ptr %ptr, align 8
  store i32 %12, ptr %13, align 4
  br label %return

return:                                           ; preds = %if.end8, %if.then6, %if.then
  ret void
}