; Function Attrs: nounwind sspstrong uwtable
define internal void @qdev_propinfo_set_losttickpolicy(ptr noundef %obj, ptr noundef %v, ptr noundef %name, ptr noundef %opaque, ptr noundef %errp) #0 {
entry:
  %value = alloca i32, align 4
  %call = tail call ptr @object_field_prop_ptr(ptr noundef %obj, ptr noundef %opaque) #10
  %info = getelementptr inbounds nuw i8, ptr %opaque, i64 8
  %0 = load ptr, ptr %info, align 8
  %enum_table = getelementptr inbounds nuw i8, ptr %0, i64 16
  %1 = load ptr, ptr %enum_table, align 8
  %call1 = call zeroext i1 @visit_type_enum(ptr noundef %v, ptr noundef %name, ptr noundef nonnull %value, ptr noundef %1, ptr noundef %errp) #10
  br i1 %call1, label %if.end, label %return

if.end:                                           ; preds = %entry
  %2 = load i32, ptr %value, align 4
  %cmp = icmp eq i32 %2, 2
  br i1 %cmp, label %if.then2, label %if.end8

if.then2:                                         ; preds = %if.end
  %call3 = call ptr @qdev_get_machine() #10
  %call.i = call ptr @object_dynamic_cast_assert(ptr noundef %call3, ptr noundef nonnull @.str.53, ptr noundef nonnull @.str.54, i32 noundef 23, ptr noundef nonnull @__func__.MACHINE) #10
  %call5 = call ptr @object_dynamic_cast(ptr noundef %call.i, ptr noundef nonnull @.str.51) #10
  %tobool.not = icmp eq ptr %call5, null
  br i1 %tobool.not, label %if.then6, label %if.then2.if.end8_crit_edge

if.then2.if.end8_crit_edge:                       ; preds = %if.then2
  %.pre = load i32, ptr %value, align 4
  br label %if.end8

if.then6:                                         ; preds = %if.then2
  call void (ptr, ptr, i32, ptr, ptr, ...) @error_setg_internal(ptr noundef %errp, ptr noundef nonnull @.str.9, i32 noundef 575, ptr noundef nonnull @__func__.qdev_propinfo_set_losttickpolicy, ptr noundef nonnull @.str.52) #10
  br label %return

if.end8:                                          ; preds = %if.then2.if.end8_crit_edge, %if.end
  %3 = phi i32 [ %.pre, %if.then2.if.end8_crit_edge ], [ %2, %if.end ]
  store i32 %3, ptr %call, align 4
  br label %return

return:                                           ; preds = %entry, %if.end8, %if.then6
  ret void
}